
Memory Configuration

Name             Origin             Length             Attributes
*default*        0x0000000000000000 0xffffffffffffffff

Linker script and memory map

                0x0000000000080000                . = 0x80000

.text.boot      0x0000000000080000       0x70
 *(.text.boot)
 .text.boot     0x0000000000080000       0x70 objects/boot_s.o
                0x0000000000080000                _start

.text           0x0000000000080800     0x1d50
 *(.text)
 .text          0x0000000000080800       0xe0 objects/kernel_c.o
                0x0000000000080800                kernel_main
 .text          0x00000000000808e0      0x118 objects/irq_c.o
                0x00000000000808e0                enable_interrupt_controller
                0x0000000000080958                show_invalid_entry_message
                0x000000000008099c                handle_irq
 .text          0x00000000000809f8      0x21c objects/mini_uart_c.o
                0x00000000000809f8                uart_send
                0x0000000000080a44                uart_recv
                0x0000000000080a84                uart_send_string
                0x0000000000080adc                uart_init
                0x0000000000080bf0                putc
 .text          0x0000000000080c14      0x978 objects/printf_c.o
                0x0000000000080fa0                tfp_format
                0x00000000000813e8                init_printf
                0x0000000000081420                tfp_printf
                0x00000000000814f4                tfp_sprintf
 .text          0x000000000008158c      0x1c0 objects/timer_c.o
                0x000000000008158c                timer_init
                0x00000000000815fc                timer_init_3
                0x000000000008166c                handle_timer_irq
                0x00000000000816dc                handle_timer_irq_3
 .text          0x000000000008174c       0x28 objects/utils_s.o
                0x000000000008174c                get_el
                0x0000000000081758                put32
                0x0000000000081760                get32
                0x0000000000081768                delay
 .text          0x0000000000081774       0x1c objects/irq_s.o
                0x0000000000081774                irq_vector_init
                0x0000000000081780                enable_irq
                0x0000000000081788                disable_irq
 *fill*         0x0000000000081790       0x70 
 .text          0x0000000000081800      0xd40 objects/entry_s.o
                0x0000000000081800                vectors
                0x000000000008253c                err_hang
 .text          0x0000000000082540       0x10 objects/mm_s.o
                0x0000000000082540                memzero
 .text          0x0000000000082550        0x0 objects/boot_s.o

.iplt           0x0000000000082550        0x0
 .iplt          0x0000000000082550        0x0 objects/kernel_c.o

.rodata         0x0000000000082550      0x2b5
 *(.rodata)
 .rodata        0x0000000000082550       0x96 objects/kernel_c.o
 *fill*         0x00000000000825e6        0x2 
 .rodata        0x00000000000825e8      0x1d2 objects/irq_c.o
 *fill*         0x00000000000827ba        0x6 
 .rodata        0x00000000000827c0       0x45 objects/timer_c.o
                0x00000000000827c0                interval

.rela.dyn       0x0000000000082808        0x0
 .rela.iplt     0x0000000000082808        0x0 objects/kernel_c.o
 .rela.got      0x0000000000082808        0x0 objects/kernel_c.o
 .rela.text.boot
                0x0000000000082808        0x0 objects/kernel_c.o

.data           0x0000000000082805        0x1
 *(.data)
 .data          0x0000000000082805        0x1 objects/kernel_c.o
                0x0000000000082805                choose
 .data          0x0000000000082806        0x0 objects/irq_c.o
 .data          0x0000000000082806        0x0 objects/mini_uart_c.o
 .data          0x0000000000082806        0x0 objects/printf_c.o
 .data          0x0000000000082806        0x0 objects/timer_c.o
 .data          0x0000000000082806        0x0 objects/utils_s.o
 .data          0x0000000000082806        0x0 objects/irq_s.o
 .data          0x0000000000082806        0x0 objects/entry_s.o
 .data          0x0000000000082806        0x0 objects/mm_s.o
 .data          0x0000000000082806        0x0 objects/boot_s.o

.igot.plt       0x0000000000082808        0x0
 .igot.plt      0x0000000000082808        0x0 objects/kernel_c.o

.got            0x0000000000082808       0x18
 .got           0x0000000000082808       0x18 objects/kernel_c.o
                0x0000000000082808                _GLOBAL_OFFSET_TABLE_

.got.plt        0x0000000000082820       0x18
 .got.plt       0x0000000000082820       0x18 objects/kernel_c.o

.data.rel.local
                0x0000000000082838       0x80
 .data.rel.local
                0x0000000000082838       0x80 objects/irq_c.o
                0x0000000000082838                entry_error_messages
                0x00000000000828b8                . = ALIGN (0x8)
                0x00000000000828b8                bss_begin = .

.bss            0x00000000000828b8       0x18
 *(.bss*)
 .bss           0x00000000000828b8        0x0 objects/kernel_c.o
 .bss           0x00000000000828b8        0x0 objects/irq_c.o
 .bss           0x00000000000828b8        0x0 objects/mini_uart_c.o
 .bss           0x00000000000828b8       0x10 objects/printf_c.o
 .bss           0x00000000000828c8        0x8 objects/timer_c.o
                0x00000000000828c8                curVal
                0x00000000000828cc                curVal_3
 .bss           0x00000000000828d0        0x0 objects/utils_s.o
 .bss           0x00000000000828d0        0x0 objects/irq_s.o
 .bss           0x00000000000828d0        0x0 objects/entry_s.o
 .bss           0x00000000000828d0        0x0 objects/mm_s.o
 .bss           0x00000000000828d0        0x0 objects/boot_s.o
                0x00000000000828d0                bss_end = .
LOAD objects/kernel_c.o
LOAD objects/irq_c.o
LOAD objects/mini_uart_c.o
LOAD objects/printf_c.o
LOAD objects/timer_c.o
LOAD objects/utils_s.o
LOAD objects/irq_s.o
LOAD objects/entry_s.o
LOAD objects/mm_s.o
LOAD objects/boot_s.o
OUTPUT(objects/kernel8.elf elf64-littleaarch64)

.comment        0x0000000000000000       0x30
 .comment       0x0000000000000000       0x30 objects/kernel_c.o
                                         0x31 (size before relaxing)
 .comment       0x0000000000000030       0x31 objects/irq_c.o
 .comment       0x0000000000000030       0x31 objects/mini_uart_c.o
 .comment       0x0000000000000030       0x31 objects/printf_c.o
 .comment       0x0000000000000030       0x31 objects/timer_c.o

.note.GNU-stack
                0x0000000000000000        0x0
 .note.GNU-stack
                0x0000000000000000        0x0 objects/kernel_c.o
 .note.GNU-stack
                0x0000000000000000        0x0 objects/irq_c.o
 .note.GNU-stack
                0x0000000000000000        0x0 objects/mini_uart_c.o
 .note.GNU-stack
                0x0000000000000000        0x0 objects/printf_c.o
 .note.GNU-stack
                0x0000000000000000        0x0 objects/timer_c.o
