
Memory Configuration

Name             Origin             Length             Attributes
*default*        0x0000000000000000 0xffffffffffffffff

Linker script and memory map

                0x0000000000080000                . = 0x80000

.text.boot      0x0000000000080000       0x70
 *(.text.boot)
 .text.boot     0x0000000000080000       0x70 objects/boot_s.o
                0x0000000000080000                _start

.text           0x0000000000080070      0xc30
 *(.text)
 .text          0x0000000000080070      0x238 objects/mini_uart_c.o
                0x0000000000080070                uart_send
                0x00000000000800bc                uart_recv
                0x00000000000800fc                uart_send_string
                0x0000000000080154                uart_init
                0x0000000000080284                putc
 .text          0x00000000000802a8      0x978 objects/printf_c.o
                0x0000000000080634                tfp_format
                0x0000000000080a7c                init_printf
                0x0000000000080ab4                tfp_printf
                0x0000000000080b88                tfp_sprintf
 .text          0x0000000000080c20       0x48 objects/kernel_c.o
                0x0000000000080c20                kernel_main
 .text          0x0000000000080c68       0x28 objects/utils_s.o
                0x0000000000080c68                get_el
                0x0000000000080c74                put32
                0x0000000000080c7c                get32
                0x0000000000080c84                delay
 .text          0x0000000000080c90       0x10 objects/mm_s.o
                0x0000000000080c90                memzero
 .text          0x0000000000080ca0        0x0 objects/boot_s.o

.iplt           0x0000000000080ca0        0x0
 .iplt          0x0000000000080ca0        0x0 objects/mini_uart_c.o

.rodata         0x0000000000080ca0       0x17
 *(.rodata)
 .rodata        0x0000000000080ca0       0x17 objects/kernel_c.o

.rela.dyn       0x0000000000080cb8        0x0
 .rela.iplt     0x0000000000080cb8        0x0 objects/mini_uart_c.o
 .rela.got      0x0000000000080cb8        0x0 objects/mini_uart_c.o
 .rela.text.boot
                0x0000000000080cb8        0x0 objects/mini_uart_c.o

.data           0x0000000000080cb7        0x0
 *(.data)
 .data          0x0000000000080cb7        0x0 objects/mini_uart_c.o
 .data          0x0000000000080cb7        0x0 objects/printf_c.o
 .data          0x0000000000080cb7        0x0 objects/kernel_c.o
 .data          0x0000000000080cb7        0x0 objects/utils_s.o
 .data          0x0000000000080cb7        0x0 objects/mm_s.o
 .data          0x0000000000080cb7        0x0 objects/boot_s.o

.igot.plt       0x0000000000080cb8        0x0
 .igot.plt      0x0000000000080cb8        0x0 objects/mini_uart_c.o

.got            0x0000000000080cb8       0x10
 .got           0x0000000000080cb8       0x10 objects/mini_uart_c.o
                0x0000000000080cb8                _GLOBAL_OFFSET_TABLE_

.got.plt        0x0000000000080cc8       0x18
 .got.plt       0x0000000000080cc8       0x18 objects/mini_uart_c.o
                0x0000000000080ce0                . = ALIGN (0x8)
                0x0000000000080ce0                bss_begin = .

.bss            0x0000000000080ce0       0x10
 *(.bss*)
 .bss           0x0000000000080ce0        0x0 objects/mini_uart_c.o
 .bss           0x0000000000080ce0       0x10 objects/printf_c.o
 .bss           0x0000000000080cf0        0x0 objects/kernel_c.o
 .bss           0x0000000000080cf0        0x0 objects/utils_s.o
 .bss           0x0000000000080cf0        0x0 objects/mm_s.o
 .bss           0x0000000000080cf0        0x0 objects/boot_s.o
                0x0000000000080cf0                bss_end = .
LOAD objects/mini_uart_c.o
LOAD objects/printf_c.o
LOAD objects/kernel_c.o
LOAD objects/utils_s.o
LOAD objects/mm_s.o
LOAD objects/boot_s.o
OUTPUT(objects/kernel8.elf elf64-littleaarch64)

.comment        0x0000000000000000       0x30
 .comment       0x0000000000000000       0x30 objects/mini_uart_c.o
                                         0x31 (size before relaxing)
 .comment       0x0000000000000030       0x31 objects/printf_c.o
 .comment       0x0000000000000030       0x31 objects/kernel_c.o

.note.GNU-stack
                0x0000000000000000        0x0
 .note.GNU-stack
                0x0000000000000000        0x0 objects/mini_uart_c.o
 .note.GNU-stack
                0x0000000000000000        0x0 objects/printf_c.o
 .note.GNU-stack
                0x0000000000000000        0x0 objects/kernel_c.o
